(dp0
S'engine'
p1
S'pdflatex'
p2
sS'packages'
p3
c__builtin__
set
p4
((lp5
S'geometry'
p6
aS'url'
p7
atp8
Rp9
sS'files_with_guttermarks'
p10
g4
((lp11
S'publications.tex'
p12
atp13
Rp14
sS'synctex'
p15
I01
s.